target datalayout = "e-m:e-p270:32:32-p271:32:32-p272:64:64-i64:64-i128:128-f80:128-n8:16:32:64-S128"
target triple = "x86_64-pc-linux-gnu"

%class.Ui_Paintbox = type { ptr, ptr, ptr, ptr, ptr, ptr, ptr, ptr, ptr, ptr, ptr, ptr, ptr, ptr, ptr, ptr, ptr, ptr, ptr, ptr, ptr, ptr, ptr, ptr, ptr, ptr, ptr, ptr, ptr, ptr, ptr, ptr, ptr, ptr, ptr, ptr, ptr, ptr, ptr, ptr, ptr, ptr, ptr, ptr, ptr, ptr, ptr, ptr, ptr, ptr, ptr, ptr, ptr, ptr, ptr, ptr, ptr, ptr, ptr, ptr, ptr, ptr, ptr, ptr, ptr, ptr, ptr, ptr, ptr, ptr, ptr, ptr, ptr, ptr, ptr, ptr, ptr, ptr, ptr, ptr, ptr, ptr, ptr, ptr, ptr, ptr, ptr, ptr, ptr, ptr, ptr, ptr, ptr }
%class.QColor = type <{ i32, %"union.QColor::CT", [2 x i8] }>
%"union.QColor::CT" = type { %struct.anon }
%struct.anon = type { i16, i16, i16, i16, i16 }

; Function Attrs: mustprogress uwtable
define void @_ZN8Paintbox25on_default_colors_clickedEv(ptr noundef nonnull align 8 dereferenceable(844) %0) #0 align 2 {
  %2 = alloca ptr, align 8
  %3 = alloca %class.QColor, align 4
  %4 = alloca %class.QColor, align 4
  store ptr %0, ptr %2, align 8
  %5 = load ptr, ptr %2, align 8
  %6 = getelementptr inbounds i8, ptr %5, i64 48
  %7 = getelementptr inbounds %class.Ui_Paintbox, ptr %6, i32 0, i32 26
  %8 = load ptr, ptr %7, align 8
  call void @_ZN6QColorC1EN2Qt11GlobalColorE(ptr noundef nonnull align 4 dereferenceable(14) %3, i32 noundef 2) #12
  call void @_ZN10Colorframe8setColorE6QColor(ptr noundef nonnull align 8 dereferenceable(48) %8, ptr noundef %3)
  %9 = getelementptr inbounds i8, ptr %5, i64 48
  %10 = getelementptr inbounds %class.Ui_Paintbox, ptr %9, i32 0, i32 25
  %11 = load ptr, ptr %10, align 8
  call void @_ZN6QColorC1EN2Qt11GlobalColorE(ptr noundef nonnull align 4 dereferenceable(14) %4, i32 noundef 3) #12
  call void @_ZN10Colorframe8setColorE6QColor(ptr noundef nonnull align 8 dereferenceable(48) %11, ptr noundef %4)
  ret void
}