; Function Attrs: mustprogress uwtable
define void @_ZN8Paintbox25on_default_colors_clickedEv(ptr nocapture noundef nonnull readonly align 8 dereferenceable(844) %0) local_unnamed_addr #0 align 2 {
  %2 = alloca %class.QColor, align 4
  %3 = alloca %class.QColor, align 4
  %4 = getelementptr inbounds i8, ptr %0, i64 256
  %5 = load ptr, ptr %4, align 8
  call void @_ZN6QColorC1EN2Qt11GlobalColorE(ptr noundef nonnull align 4 dereferenceable(14) %2, i32 noundef 2) #18
  call void @_ZN10Colorframe8setColorE6QColor(ptr noundef nonnull align 8 dereferenceable(48) %5, ptr noundef nonnull %2)
  %6 = getelementptr inbounds i8, ptr %0, i64 248
  %7 = load ptr, ptr %6, align 8
  call void @_ZN6QColorC1EN2Qt11GlobalColorE(ptr noundef nonnull align 4 dereferenceable(14) %3, i32 noundef 3) #18
  call void @_ZN10Colorframe8setColorE6QColor(ptr noundef nonnull align 8 dereferenceable(48) %7, ptr noundef nonnull %3)
  ret void
}